target datalayout = "e-m:e-p270:32:32-p271:32:32-p272:64:64-i64:64-i128:128-f80:128-n8:16:32:64-S128"
target triple = "x86_64-pc-linux-gnu"

%"class.cv::Mat" = type { i32, i32, i32, i32, ptr, ptr, ptr, ptr, ptr, ptr, %"struct.cv::MatSize", %"struct.cv::MatStep" }
%"struct.cv::MatSize" = type { ptr }
%"struct.cv::MatStep" = type { ptr, [2 x i64] }

@.str = private unnamed_addr constant [26 x i8] c"black: %d out of %d (%f)\0A\00", align 1

; Function Attrs: inlinehint mustprogress nounwind uwtable
define linkonce_odr hidden noundef nonnull align 1 dereferenceable(1) ptr @_ZNK2cv3Mat2atIhEERKT_ii(ptr noundef nonnull align 8 dereferenceable(96) %0, i32 noundef %1, i32 noundef %2) #4 comdat align 2 {
  %4 = alloca ptr, align 8
  %5 = alloca i32, align 4
  %6 = alloca i32, align 4
  store ptr %0, ptr %4, align 8, !tbaa !15
  store i32 %1, ptr %5, align 4, !tbaa !17
  store i32 %2, ptr %6, align 4, !tbaa !17
  %7 = load ptr, ptr %4, align 8
  %8 = getelementptr inbounds nuw %"class.cv::Mat", ptr %7, i32 0, i32 4
  %9 = load ptr, ptr %8, align 8, !tbaa !33
  %10 = getelementptr inbounds nuw %"class.cv::Mat", ptr %7, i32 0, i32 11
  %11 = getelementptr inbounds nuw %"struct.cv::MatStep", ptr %10, i32 0, i32 0
  %12 = load ptr, ptr %11, align 8, !tbaa !34
  %13 = getelementptr inbounds i64, ptr %12, i64 0
  %14 = load i64, ptr %13, align 8, !tbaa !35
  %15 = load i32, ptr %5, align 4, !tbaa !17
  %16 = sext i32 %15 to i64
  %17 = mul i64 %14, %16
  %18 = getelementptr inbounds nuw i8, ptr %9, i64 %17
  %19 = load i32, ptr %6, align 4, !tbaa !17
  %20 = sext i32 %19 to i64
  %21 = getelementptr inbounds i8, ptr %18, i64 %20
  ret ptr %21
}

; Function Attrs: mustprogress uwtable
define hidden void @_ZN2cv8tracking4impl3tld8myassertERKNS_3MatE(ptr noundef nonnull align 8 dereferenceable(96) %0) #5 {
  %2 = alloca ptr, align 8
  %3 = alloca i32, align 4
  %4 = alloca i32, align 4
  %5 = alloca i32, align 4
  %6 = alloca i32, align 4
  store ptr %0, ptr %2, align 8, !tbaa !15
  call void @llvm.lifetime.start.p0(i64 4, ptr %3) #3
  store i32 0, ptr %3, align 4, !tbaa !17
  call void @llvm.lifetime.start.p0(i64 4, ptr %4) #3
  store i32 0, ptr %4, align 4, !tbaa !17
  br label %7

7:                                                ; preds = %38, %1
  %8 = load i32, ptr %4, align 4, !tbaa !17
  %9 = load ptr, ptr %2, align 8, !tbaa !15
  %10 = getelementptr inbounds nuw %"class.cv::Mat", ptr %9, i32 0, i32 2
  %11 = load i32, ptr %10, align 8, !tbaa !19
  %12 = icmp slt i32 %8, %11
  br i1 %12, label %14, label %13

13:                                               ; preds = %7
  store i32 2, ptr %5, align 4
  call void @llvm.lifetime.end.p0(i64 4, ptr %4) #3
  br label %41

14:                                               ; preds = %7
  call void @llvm.lifetime.start.p0(i64 4, ptr %6) #3
  store i32 0, ptr %6, align 4, !tbaa !17
  br label %15

15:                                               ; preds = %34, %14
  %16 = load i32, ptr %6, align 4, !tbaa !17
  %17 = load ptr, ptr %2, align 8, !tbaa !15
  %18 = getelementptr inbounds nuw %"class.cv::Mat", ptr %17, i32 0, i32 3
  %19 = load i32, ptr %18, align 4, !tbaa !28
  %20 = icmp slt i32 %16, %19
  br i1 %20, label %22, label %21

21:                                               ; preds = %15
  store i32 5, ptr %5, align 4
  call void @llvm.lifetime.end.p0(i64 4, ptr %6) #3
  br label %37

22:                                               ; preds = %15
  %23 = load ptr, ptr %2, align 8, !tbaa !15
  %24 = load i32, ptr %4, align 4, !tbaa !17
  %25 = load i32, ptr %6, align 4, !tbaa !17
  %26 = call noundef nonnull align 1 dereferenceable(1) ptr @_ZNK2cv3Mat2atIhEERKT_ii(ptr noundef nonnull align 8 dereferenceable(96) %23, i32 noundef %24, i32 noundef %25)
  %27 = load i8, ptr %26, align 1, !tbaa !29
  %28 = zext i8 %27 to i32
  %29 = icmp eq i32 %28, 0
  br i1 %29, label %30, label %33

30:                                               ; preds = %22
  %31 = load i32, ptr %3, align 4, !tbaa !17
  %32 = add nsw i32 %31, 1
  store i32 %32, ptr %3, align 4, !tbaa !17
  br label %33

33:                                               ; preds = %30, %22
  br label %34

34:                                               ; preds = %33
  %35 = load i32, ptr %6, align 4, !tbaa !17
  %36 = add nsw i32 %35, 1
  store i32 %36, ptr %6, align 4, !tbaa !17
  br label %15, !llvm.loop !30

37:                                               ; preds = %21
  br label %38

38:                                               ; preds = %37
  %39 = load i32, ptr %4, align 4, !tbaa !17
  %40 = add nsw i32 %39, 1
  store i32 %40, ptr %4, align 4, !tbaa !17
  br label %7, !llvm.loop !32

41:                                               ; preds = %13
  %42 = load i32, ptr %3, align 4, !tbaa !17
  %43 = load ptr, ptr %2, align 8, !tbaa !15
  %44 = getelementptr inbounds nuw %"class.cv::Mat", ptr %43, i32 0, i32 2
  %45 = load i32, ptr %44, align 8, !tbaa !19
  %46 = load ptr, ptr %2, align 8, !tbaa !15
  %47 = getelementptr inbounds nuw %"class.cv::Mat", ptr %46, i32 0, i32 3
  %48 = load i32, ptr %47, align 4, !tbaa !28
  %49 = mul nsw i32 %45, %48
  %50 = load i32, ptr %3, align 4, !tbaa !17
  %51 = sitofp i32 %50 to double
  %52 = fmul double 1.000000e+00, %51
  %53 = load ptr, ptr %2, align 8, !tbaa !15
  %54 = getelementptr inbounds nuw %"class.cv::Mat", ptr %53, i32 0, i32 2
  %55 = load i32, ptr %54, align 8, !tbaa !19
  %56 = sitofp i32 %55 to double
  %57 = fdiv double %52, %56
  %58 = load ptr, ptr %2, align 8, !tbaa !15
  %59 = getelementptr inbounds nuw %"class.cv::Mat", ptr %58, i32 0, i32 3
  %60 = load i32, ptr %59, align 4, !tbaa !28
  %61 = sitofp i32 %60 to double
  %62 = fdiv double %57, %61
  %63 = call i32 (ptr, ...) @printf(ptr noundef @.str, i32 noundef %42, i32 noundef %49, double noundef %62)
  call void @llvm.lifetime.end.p0(i64 4, ptr %3) #3
  ret void
}