; Function Attrs: mustprogress nofree nounwind uwtable
define hidden void @_ZN2cv8tracking4impl3tld8myassertERKNS_3MatE(ptr noundef nonnull readonly align 8 captures(none) dereferenceable(96) %0) local_unnamed_addr #3 {
  %2 = getelementptr inbounds nuw i8, ptr %0, i64 8
  %3 = load i32, ptr %2, align 8, !tbaa !3
  %4 = icmp sgt i32 %3, 0
  %5 = getelementptr inbounds nuw i8, ptr %0, i64 12
  %6 = load i32, ptr %5, align 4, !tbaa !16
  br i1 %4, label %.preheader.lr.ph, label %._crit_edge22

.preheader.lr.ph:                                 ; preds = %1
  %7 = icmp sgt i32 %6, 0
  %8 = getelementptr inbounds nuw i8, ptr %0, i64 16
  %9 = load ptr, ptr %8, align 8
  br i1 %7, label %.preheader.lr.ph.split.us, label %._crit_edge22

.preheader.lr.ph.split.us:                        ; preds = %.preheader.lr.ph
  %10 = getelementptr inbounds nuw i8, ptr %0, i64 72
  %11 = load ptr, ptr %10, align 8
  %12 = load i64, ptr %11, align 8, !tbaa !17
  %wide.trip.count31 = zext nneg i32 %3 to i64
  %wide.trip.count = zext nneg i32 %6 to i64
  br label %.preheader.us

.preheader.us:                                    ; preds = %._crit_edge.us, %.preheader.lr.ph.split.us
  %indvars.iv28 = phi i64 [ %indvars.iv.next29, %._crit_edge.us ], [ 0, %.preheader.lr.ph.split.us ]
  %.01620.us = phi i32 [ %spec.select.us, %._crit_edge.us ], [ 0, %.preheader.lr.ph.split.us ]
  %13 = mul i64 %12, %indvars.iv28
  %14 = getelementptr inbounds nuw i8, ptr %9, i64 %13
  br label %15

15:                                               ; preds = %.preheader.us, %15
  %indvars.iv = phi i64 [ 0, %.preheader.us ], [ %indvars.iv.next, %15 ]
  %.118.us = phi i32 [ %.01620.us, %.preheader.us ], [ %spec.select.us, %15 ]
  %16 = getelementptr inbounds nuw i8, ptr %14, i64 %indvars.iv
  %17 = load i8, ptr %16, align 1, !tbaa !19
  %18 = icmp eq i8 %17, 0
  %19 = zext i1 %18 to i32
  %spec.select.us = add nsw i32 %.118.us, %19
  %indvars.iv.next = add nuw nsw i64 %indvars.iv, 1
  %exitcond.not = icmp eq i64 %indvars.iv.next, %wide.trip.count
  br i1 %exitcond.not, label %._crit_edge.us, label %15, !llvm.loop !20

._crit_edge.us:                                   ; preds = %15
  %indvars.iv.next29 = add nuw nsw i64 %indvars.iv28, 1
  %exitcond32.not = icmp eq i64 %indvars.iv.next29, %wide.trip.count31
  br i1 %exitcond32.not, label %._crit_edge22, label %.preheader.us, !llvm.loop !22

._crit_edge22:                                    ; preds = %._crit_edge.us, %1, %.preheader.lr.ph
  %.016.lcssa = phi i32 [ 0, %.preheader.lr.ph ], [ 0, %1 ], [ %spec.select.us, %._crit_edge.us ]
  %20 = mul nsw i32 %6, %3
  %21 = sitofp i32 %.016.lcssa to double
  %22 = sitofp i32 %3 to double
  %23 = fdiv double %21, %22
  %24 = sitofp i32 %6 to double
  %25 = fdiv double %23, %24
  %26 = tail call i32 (ptr, ...) @printf(ptr noundef nonnull dereferenceable(1) @.str, i32 noundef %.016.lcssa, i32 noundef %20, double noundef %25)
  ret void
}